target datalayout = "e-m:e-p270:32:32-p271:32:32-p272:64:64-i64:64-i128:128-f80:128-n8:16:32:64-S128"
target triple = "x86_64-unknown-linux-gnu"

%"class.std::set.0" = type { %"class.std::_Rb_tree.1" }
%"class.std::_Rb_tree.1" = type { %"struct.std::_Rb_tree<QuantLib::Observer *, QuantLib::Observer *, std::_Identity<QuantLib::Observer *>, std::less<QuantLib::Observer *>>::_Rb_tree_impl" }
%"struct.std::_Rb_tree<QuantLib::Observer *, QuantLib::Observer *, std::_Identity<QuantLib::Observer *>, std::less<QuantLib::Observer *>>::_Rb_tree_impl" = type { [8 x i8], %"struct.std::_Rb_tree_header" }
%"struct.std::_Rb_tree_header" = type { %"struct.std::_Rb_tree_node_base", i64 }
%"struct.std::_Rb_tree_node_base" = type { i32, ptr, ptr, ptr }
%"class.std::set" = type { %"class.std::_Rb_tree" }
%"class.std::_Rb_tree" = type { %"struct.std::_Rb_tree<boost::shared_ptr<QuantLib::Observable>, boost::shared_ptr<QuantLib::Observable>, std::_Identity<boost::shared_ptr<QuantLib::Observable>>, std::less<boost::shared_ptr<QuantLib::Observable>>>::_Rb_tree_impl" }
%"struct.std::_Rb_tree<boost::shared_ptr<QuantLib::Observable>, boost::shared_ptr<QuantLib::Observable>, std::_Identity<boost::shared_ptr<QuantLib::Observable>>, std::less<boost::shared_ptr<QuantLib::Observable>>>::_Rb_tree_impl" = type { [8 x i8], %"struct.std::_Rb_tree_header" }
%"class.boost::detail::shared_count" = type { ptr }
%"class.QuantLib::Observable" = type { ptr, %"class.std::set.0" }
%"class.QuantLib::Observer" = type { ptr, %"class.std::set" }
%"class.QuantLib::CashFlow.base" = type <{ %"class.QuantLib::Event.base", %"class.QuantLib::LazyObject.base" }>
%"class.QuantLib::Event.base" = type { ptr }
%"class.QuantLib::LazyObject.base" = type <{ ptr, i8, i8, i8, i8 }>
%"class.QuantLib::Date" = type { i64 }
%"class.QuantLib::DayCounter" = type { %"class.boost::shared_ptr.15" }
%"class.boost::shared_ptr.15" = type { ptr, %"class.boost::detail::shared_count" }
%"class.QuantLib::Null" = type { i8 }
%"class.QuantLib::CappedFlooredYoYInflationCoupon" = type { %"class.QuantLib::YoYInflationCoupon.base", %"class.boost::shared_ptr.32", i8, i8, double, double, %"class.QuantLib::Observable", %"class.QuantLib::Observer" }
%"class.QuantLib::YoYInflationCoupon.base" = type { %"class.QuantLib::InflationCoupon.base", %"class.boost::shared_ptr.31", double, double }
%"class.QuantLib::InflationCoupon.base" = type { %"class.QuantLib::Coupon.base", %"class.boost::shared_ptr.29", %"class.boost::shared_ptr.30", %"class.QuantLib::Period", %"class.QuantLib::DayCounter", i32, double }
%"class.QuantLib::Coupon.base" = type { %"class.QuantLib::CashFlow.base", %"class.QuantLib::Date", double, %"class.QuantLib::Date", %"class.QuantLib::Date", %"class.QuantLib::Date", %"class.QuantLib::Date", %"class.QuantLib::Date", double }
%"class.boost::shared_ptr.29" = type { ptr, %"class.boost::detail::shared_count" }
%"class.boost::shared_ptr.30" = type { ptr, %"class.boost::detail::shared_count" }
%"class.QuantLib::Period" = type { i32, i32 }
%"class.boost::shared_ptr.31" = type { ptr, %"class.boost::detail::shared_count" }
%"class.boost::shared_ptr.32" = type { ptr, %"class.boost::detail::shared_count" }
%"class.QuantLib::YoYInflationCoupon" = type { %"class.QuantLib::InflationCoupon.base", %"class.boost::shared_ptr.31", double, double, %"class.QuantLib::Observable", %"class.QuantLib::Observer" }

; Function Attrs: mustprogress nounwind uwtable
define linkonce_odr noundef float @_ZNSt14numeric_limitsIfE3maxEv() #1 comdat align 2 {
entry:
  ret float 0x47EFFFFFE0000000
}

; Function Attrs: mustprogress nounwind uwtable
define linkonce_odr noundef float @_ZN8QuantLib6detail17FloatingPointNullILb1EE9nullValueEv() #1 comdat align 2 {
entry:
  %call = call noundef float @_ZNSt14numeric_limitsIfE3maxEv() #14
  ret float %call
}

; Function Attrs: mustprogress uwtable
define linkonce_odr noundef double @_ZNK8QuantLib4NullIdEcvdEv(ptr noundef nonnull align 1 dereferenceable(1) %this) #2 comdat align 2 {
entry:
  %this.addr = alloca ptr, align 8
  store ptr %this, ptr %this.addr, align 8, !tbaa !3
  %call = call noundef float @_ZN8QuantLib6detail17FloatingPointNullILb1EE9nullValueEv()
  %conv = fpext float %call to double
  ret double %conv
}

; Function Attrs: mustprogress uwtable
define noundef double @_ZNK8QuantLib31CappedFlooredYoYInflationCoupon3capEv(ptr noundef nonnull align 8 dereferenceable(232) %this) #2 align 2 {
entry:
  %retval = alloca double, align 8
  %this.addr = alloca ptr, align 8
  %ref.tmp = alloca %"class.QuantLib::Null", align 1
  store ptr %this, ptr %this.addr, align 8, !tbaa !3
  %this1 = load ptr, ptr %this.addr, align 8
  %gearing_ = getelementptr inbounds nuw %"class.QuantLib::YoYInflationCoupon", ptr %this1, i32 0, i32 2
  %0 = load double, ptr %gearing_, align 8, !tbaa !46
  %cmp = fcmp ogt double %0, 0.000000e+00
  br i1 %cmp, label %land.lhs.true, label %if.end

land.lhs.true:                                    ; preds = %entry
  %isCapped_ = getelementptr inbounds nuw %"class.QuantLib::CappedFlooredYoYInflationCoupon", ptr %this1, i32 0, i32 3
  %1 = load i8, ptr %isCapped_, align 1, !tbaa !32, !range !15, !noundef !16
  %loadedv = trunc i8 %1 to i1
  br i1 %loadedv, label %if.then, label %if.end

if.then:                                          ; preds = %land.lhs.true
  %cap_ = getelementptr inbounds nuw %"class.QuantLib::CappedFlooredYoYInflationCoupon", ptr %this1, i32 0, i32 4
  %2 = load double, ptr %cap_, align 8, !tbaa !47
  store double %2, ptr %retval, align 8
  br label %return

if.end:                                           ; preds = %land.lhs.true, %entry
  %gearing_2 = getelementptr inbounds nuw %"class.QuantLib::YoYInflationCoupon", ptr %this1, i32 0, i32 2
  %3 = load double, ptr %gearing_2, align 8, !tbaa !46
  %cmp3 = fcmp olt double %3, 0.000000e+00
  br i1 %cmp3, label %land.lhs.true4, label %if.end7

land.lhs.true4:                                   ; preds = %if.end
  %isFloored_ = getelementptr inbounds nuw %"class.QuantLib::CappedFlooredYoYInflationCoupon", ptr %this1, i32 0, i32 2
  %4 = load i8, ptr %isFloored_, align 8, !tbaa !45, !range !15, !noundef !16
  %loadedv5 = trunc i8 %4 to i1
  br i1 %loadedv5, label %if.then6, label %if.end7

if.then6:                                         ; preds = %land.lhs.true4
  %floor_ = getelementptr inbounds nuw %"class.QuantLib::CappedFlooredYoYInflationCoupon", ptr %this1, i32 0, i32 5
  %5 = load double, ptr %floor_, align 8, !tbaa !48
  store double %5, ptr %retval, align 8
  br label %return

if.end7:                                          ; preds = %land.lhs.true4, %if.end
  call void @llvm.lifetime.start.p0(i64 1, ptr %ref.tmp) #14
  %call = call noundef double @_ZNK8QuantLib4NullIdEcvdEv(ptr noundef nonnull align 1 dereferenceable(1) %ref.tmp)
  store double %call, ptr %retval, align 8
  call void @llvm.lifetime.end.p0(i64 1, ptr %ref.tmp) #14
  br label %return

return:                                           ; preds = %if.end7, %if.then6, %if.then
  %6 = load double, ptr %retval, align 8
  ret double %6
}